; Function Attrs: nounwind uwtable
define internal void @__cxx_global_array_dtor.26(ptr nocapture readnone %0) #3 section ".text.startup" {
entry:
  br label %arraydestroy.body

arraydestroy.body:                                ; preds = %arraydestroy.body, %entry
  %arraydestroy.elementPast = phi ptr [ getelementptr inbounds ([2 x %"struct.rocksdb::StateInfo"], ptr @_ZN7rocksdbL18global_state_tableE, i64 1, i64 0), %entry ], [ %arraydestroy.element, %arraydestroy.body ]
  %arraydestroy.element = getelementptr inbounds i8, ptr %arraydestroy.elementPast, i64 -40
  %name.i = getelementptr inbounds i8, ptr %arraydestroy.elementPast, i64 -32
  tail call void @_ZNSt7__cxx1112basic_stringIcSt11char_traitsIcESaIcEED1Ev(ptr noundef nonnull align 8 dereferenceable(32) %name.i) #19
  %arraydestroy.done = icmp eq ptr %arraydestroy.element, @_ZN7rocksdbL18global_state_tableE
  br i1 %arraydestroy.done, label %arraydestroy.done1, label %arraydestroy.body

arraydestroy.done1:                               ; preds = %arraydestroy.body
  ret void
}